target datalayout = "e-m:e-p270:32:32-p271:32:32-p272:64:64-i64:64-i128:128-f80:128-n8:16:32:64-S128"
target triple = "x86_64-pc-linux-gnu"

%"struct.duckdb_zstd::XXH32_state_s" = type { i32, i32, i32, i32, i32, i32, [4 x i32], i32, i32 }

@_ZN11duckdb_zstdL5g_oneE = internal constant i32 1, align 4

; Function Attrs: mustprogress nounwind uwtable
define internal noundef i32 @_ZN11duckdb_zstdL10XXH_swap32Ej(i32 noundef %0) #0 {
  %2 = alloca i32, align 4
  store i32 %0, ptr %2, align 4, !tbaa !13
  %3 = load i32, ptr %2, align 4, !tbaa !13
  %4 = shl i32 %3, 24
  %5 = and i32 %4, -16777216
  %6 = load i32, ptr %2, align 4, !tbaa !13
  %7 = shl i32 %6, 8
  %8 = and i32 %7, 16711680
  %9 = or i32 %5, %8
  %10 = load i32, ptr %2, align 4, !tbaa !13
  %11 = lshr i32 %10, 8
  %12 = and i32 %11, 65280
  %13 = or i32 %9, %12
  %14 = load i32, ptr %2, align 4, !tbaa !13
  %15 = lshr i32 %14, 24
  %16 = and i32 %15, 255
  %17 = or i32 %13, %16
  ret i32 %17
}

; Function Attrs: mustprogress nounwind uwtable
define internal noundef i32 @_ZN11duckdb_zstdL10XXH_read32EPKv(ptr noundef %0) #0 {
  %2 = alloca ptr, align 8
  %3 = alloca i32, align 4
  store ptr %0, ptr %2, align 8, !tbaa !10
  call void @llvm.lifetime.start.p0(i64 4, ptr %3) #8
  %4 = load ptr, ptr %2, align 8, !tbaa !10
  call void @llvm.memcpy.p0.p0.i64(ptr align 4 %3, ptr align 1 %4, i64 4, i1 false)
  %5 = load i32, ptr %3, align 4, !tbaa !13
  call void @llvm.lifetime.end.p0(i64 4, ptr %3) #8
  ret i32 %5
}

; Function Attrs: alwaysinline mustprogress uwtable
define internal noundef i32 @_ZN11duckdb_zstdL18XXH_readLE32_alignEPKvNS_13XXH_endianessENS_13XXH_alignmentE(ptr noundef %0, i32 noundef %1, i32 noundef %2) #4 {
  %4 = alloca i32, align 4
  %5 = alloca ptr, align 8
  %6 = alloca i32, align 4
  %7 = alloca i32, align 4
  store ptr %0, ptr %5, align 8, !tbaa !10
  store i32 %1, ptr %6, align 4, !tbaa !16
  store i32 %2, ptr %7, align 4, !tbaa !18
  %8 = load i32, ptr %7, align 4, !tbaa !18
  %9 = icmp eq i32 %8, 1
  br i1 %9, label %10, label %22

10:                                               ; preds = %3
  %11 = load i32, ptr %6, align 4, !tbaa !16
  %12 = icmp eq i32 %11, 1
  br i1 %12, label %13, label %16

13:                                               ; preds = %10
  %14 = load ptr, ptr %5, align 8, !tbaa !10
  %15 = call noundef i32 @_ZN11duckdb_zstdL10XXH_read32EPKv(ptr noundef %14)
  br label %20

16:                                               ; preds = %10
  %17 = load ptr, ptr %5, align 8, !tbaa !10
  %18 = call noundef i32 @_ZN11duckdb_zstdL10XXH_read32EPKv(ptr noundef %17)
  %19 = call noundef i32 @_ZN11duckdb_zstdL10XXH_swap32Ej(i32 noundef %18)
  br label %20

20:                                               ; preds = %16, %13
  %21 = phi i32 [ %15, %13 ], [ %19, %16 ]
  store i32 %21, ptr %4, align 4
  br label %34

22:                                               ; preds = %3
  %23 = load i32, ptr %6, align 4, !tbaa !16
  %24 = icmp eq i32 %23, 1
  br i1 %24, label %25, label %28

25:                                               ; preds = %22
  %26 = load ptr, ptr %5, align 8, !tbaa !10
  %27 = load i32, ptr %26, align 4, !tbaa !13
  br label %32

28:                                               ; preds = %22
  %29 = load ptr, ptr %5, align 8, !tbaa !10
  %30 = load i32, ptr %29, align 4, !tbaa !13
  %31 = call noundef i32 @_ZN11duckdb_zstdL10XXH_swap32Ej(i32 noundef %30)
  br label %32

32:                                               ; preds = %28, %25
  %33 = phi i32 [ %27, %25 ], [ %31, %28 ]
  store i32 %33, ptr %4, align 4
  br label %34

34:                                               ; preds = %32, %20
  %35 = load i32, ptr %4, align 4
  ret i32 %35
}

; Function Attrs: alwaysinline mustprogress uwtable
define internal noundef i32 @_ZN11duckdb_zstdL12XXH_readLE32EPKvNS_13XXH_endianessE(ptr noundef %0, i32 noundef %1) #4 {
  %3 = alloca ptr, align 8
  %4 = alloca i32, align 4
  store ptr %0, ptr %3, align 8, !tbaa !10
  store i32 %1, ptr %4, align 4, !tbaa !16
  %5 = load ptr, ptr %3, align 8, !tbaa !10
  %6 = load i32, ptr %4, align 4, !tbaa !16
  %7 = call noundef i32 @_ZN11duckdb_zstdL18XXH_readLE32_alignEPKvNS_13XXH_endianessENS_13XXH_alignmentE(ptr noundef %5, i32 noundef %6, i32 noundef 1)
  ret i32 %7
}

; Function Attrs: alwaysinline mustprogress uwtable
define internal noundef i32 @_ZN11duckdb_zstdL19XXH32_digest_endianEPKNS_13XXH32_state_sENS_13XXH_endianessE(ptr noundef %0, i32 noundef %1) #4 {
  %3 = alloca ptr, align 8
  %4 = alloca i32, align 4
  %5 = alloca ptr, align 8
  %6 = alloca ptr, align 8
  %7 = alloca i32, align 4
  store ptr %0, ptr %3, align 8, !tbaa !3
  store i32 %1, ptr %4, align 4, !tbaa !16
  call void @llvm.lifetime.start.p0(i64 8, ptr %5) #8
  %8 = load ptr, ptr %3, align 8, !tbaa !3
  %9 = getelementptr inbounds nuw %"struct.duckdb_zstd::XXH32_state_s", ptr %8, i32 0, i32 6
  %10 = getelementptr inbounds [4 x i32], ptr %9, i64 0, i64 0
  store ptr %10, ptr %5, align 8, !tbaa !20
  call void @llvm.lifetime.start.p0(i64 8, ptr %6) #8
  %11 = load ptr, ptr %3, align 8, !tbaa !3
  %12 = getelementptr inbounds nuw %"struct.duckdb_zstd::XXH32_state_s", ptr %11, i32 0, i32 6
  %13 = getelementptr inbounds [4 x i32], ptr %12, i64 0, i64 0
  %14 = load ptr, ptr %3, align 8, !tbaa !3
  %15 = getelementptr inbounds nuw %"struct.duckdb_zstd::XXH32_state_s", ptr %14, i32 0, i32 7
  %16 = load i32, ptr %15, align 4, !tbaa !43
  %17 = zext i32 %16 to i64
  %18 = getelementptr inbounds nuw i8, ptr %13, i64 %17
  store ptr %18, ptr %6, align 8, !tbaa !20
  call void @llvm.lifetime.start.p0(i64 4, ptr %7) #8
  %19 = load ptr, ptr %3, align 8, !tbaa !3
  %20 = getelementptr inbounds nuw %"struct.duckdb_zstd::XXH32_state_s", ptr %19, i32 0, i32 1
  %21 = load i32, ptr %20, align 4, !tbaa !42
  %22 = icmp ne i32 %21, 0
  br i1 %22, label %23, label %63

23:                                               ; preds = %2
  %24 = load ptr, ptr %3, align 8, !tbaa !3
  %25 = getelementptr inbounds nuw %"struct.duckdb_zstd::XXH32_state_s", ptr %24, i32 0, i32 2
  %26 = load i32, ptr %25, align 4, !tbaa !31
  %27 = shl i32 %26, 1
  %28 = load ptr, ptr %3, align 8, !tbaa !3
  %29 = getelementptr inbounds nuw %"struct.duckdb_zstd::XXH32_state_s", ptr %28, i32 0, i32 2
  %30 = load i32, ptr %29, align 4, !tbaa !31
  %31 = lshr i32 %30, 31
  %32 = or i32 %27, %31
  %33 = load ptr, ptr %3, align 8, !tbaa !3
  %34 = getelementptr inbounds nuw %"struct.duckdb_zstd::XXH32_state_s", ptr %33, i32 0, i32 3
  %35 = load i32, ptr %34, align 4, !tbaa !33
  %36 = shl i32 %35, 7
  %37 = load ptr, ptr %3, align 8, !tbaa !3
  %38 = getelementptr inbounds nuw %"struct.duckdb_zstd::XXH32_state_s", ptr %37, i32 0, i32 3
  %39 = load i32, ptr %38, align 4, !tbaa !33
  %40 = lshr i32 %39, 25
  %41 = or i32 %36, %40
  %42 = add i32 %32, %41
  %43 = load ptr, ptr %3, align 8, !tbaa !3
  %44 = getelementptr inbounds nuw %"struct.duckdb_zstd::XXH32_state_s", ptr %43, i32 0, i32 4
  %45 = load i32, ptr %44, align 4, !tbaa !34
  %46 = shl i32 %45, 12
  %47 = load ptr, ptr %3, align 8, !tbaa !3
  %48 = getelementptr inbounds nuw %"struct.duckdb_zstd::XXH32_state_s", ptr %47, i32 0, i32 4
  %49 = load i32, ptr %48, align 4, !tbaa !34
  %50 = lshr i32 %49, 20
  %51 = or i32 %46, %50
  %52 = add i32 %42, %51
  %53 = load ptr, ptr %3, align 8, !tbaa !3
  %54 = getelementptr inbounds nuw %"struct.duckdb_zstd::XXH32_state_s", ptr %53, i32 0, i32 5
  %55 = load i32, ptr %54, align 4, !tbaa !35
  %56 = shl i32 %55, 18
  %57 = load ptr, ptr %3, align 8, !tbaa !3
  %58 = getelementptr inbounds nuw %"struct.duckdb_zstd::XXH32_state_s", ptr %57, i32 0, i32 5
  %59 = load i32, ptr %58, align 4, !tbaa !35
  %60 = lshr i32 %59, 14
  %61 = or i32 %56, %60
  %62 = add i32 %52, %61
  store i32 %62, ptr %7, align 4, !tbaa !13
  br label %68

63:                                               ; preds = %2
  %64 = load ptr, ptr %3, align 8, !tbaa !3
  %65 = getelementptr inbounds nuw %"struct.duckdb_zstd::XXH32_state_s", ptr %64, i32 0, i32 4
  %66 = load i32, ptr %65, align 4, !tbaa !34
  %67 = add i32 %66, 374761393
  store i32 %67, ptr %7, align 4, !tbaa !13
  br label %68

68:                                               ; preds = %63, %23
  %69 = load ptr, ptr %3, align 8, !tbaa !3
  %70 = getelementptr inbounds nuw %"struct.duckdb_zstd::XXH32_state_s", ptr %69, i32 0, i32 0
  %71 = load i32, ptr %70, align 4, !tbaa !41
  %72 = load i32, ptr %7, align 4, !tbaa !13
  %73 = add i32 %72, %71
  store i32 %73, ptr %7, align 4, !tbaa !13
  br label %74

74:                                               ; preds = %79, %68
  %75 = load ptr, ptr %5, align 8, !tbaa !20
  %76 = getelementptr inbounds i8, ptr %75, i64 4
  %77 = load ptr, ptr %6, align 8, !tbaa !20
  %78 = icmp ule ptr %76, %77
  br i1 %78, label %79, label %94

79:                                               ; preds = %74
  %80 = load ptr, ptr %5, align 8, !tbaa !20
  %81 = load i32, ptr %4, align 4, !tbaa !16
  %82 = call noundef i32 @_ZN11duckdb_zstdL12XXH_readLE32EPKvNS_13XXH_endianessE(ptr noundef %80, i32 noundef %81)
  %83 = mul i32 %82, -1028477379
  %84 = load i32, ptr %7, align 4, !tbaa !13
  %85 = add i32 %84, %83
  store i32 %85, ptr %7, align 4, !tbaa !13
  %86 = load i32, ptr %7, align 4, !tbaa !13
  %87 = shl i32 %86, 17
  %88 = load i32, ptr %7, align 4, !tbaa !13
  %89 = lshr i32 %88, 15
  %90 = or i32 %87, %89
  %91 = mul i32 %90, 668265263
  store i32 %91, ptr %7, align 4, !tbaa !13
  %92 = load ptr, ptr %5, align 8, !tbaa !20
  %93 = getelementptr inbounds i8, ptr %92, i64 4
  store ptr %93, ptr %5, align 8, !tbaa !20
  br label %74, !llvm.loop !47

94:                                               ; preds = %74
  br label %95

95:                                               ; preds = %99, %94
  %96 = load ptr, ptr %5, align 8, !tbaa !20
  %97 = load ptr, ptr %6, align 8, !tbaa !20
  %98 = icmp ult ptr %96, %97
  br i1 %98, label %99, label %114

99:                                               ; preds = %95
  %100 = load ptr, ptr %5, align 8, !tbaa !20
  %101 = load i8, ptr %100, align 1, !tbaa !15
  %102 = zext i8 %101 to i32
  %103 = mul i32 %102, 374761393
  %104 = load i32, ptr %7, align 4, !tbaa !13
  %105 = add i32 %104, %103
  store i32 %105, ptr %7, align 4, !tbaa !13
  %106 = load i32, ptr %7, align 4, !tbaa !13
  %107 = shl i32 %106, 11
  %108 = load i32, ptr %7, align 4, !tbaa !13
  %109 = lshr i32 %108, 21
  %110 = or i32 %107, %109
  %111 = mul i32 %110, -1640531535
  store i32 %111, ptr %7, align 4, !tbaa !13
  %112 = load ptr, ptr %5, align 8, !tbaa !20
  %113 = getelementptr inbounds nuw i8, ptr %112, i32 1
  store ptr %113, ptr %5, align 8, !tbaa !20
  br label %95, !llvm.loop !48

114:                                              ; preds = %95
  %115 = load i32, ptr %7, align 4, !tbaa !13
  %116 = lshr i32 %115, 15
  %117 = load i32, ptr %7, align 4, !tbaa !13
  %118 = xor i32 %117, %116
  store i32 %118, ptr %7, align 4, !tbaa !13
  %119 = load i32, ptr %7, align 4, !tbaa !13
  %120 = mul i32 %119, -2048144777
  store i32 %120, ptr %7, align 4, !tbaa !13
  %121 = load i32, ptr %7, align 4, !tbaa !13
  %122 = lshr i32 %121, 13
  %123 = load i32, ptr %7, align 4, !tbaa !13
  %124 = xor i32 %123, %122
  store i32 %124, ptr %7, align 4, !tbaa !13
  %125 = load i32, ptr %7, align 4, !tbaa !13
  %126 = mul i32 %125, -1028477379
  store i32 %126, ptr %7, align 4, !tbaa !13
  %127 = load i32, ptr %7, align 4, !tbaa !13
  %128 = lshr i32 %127, 16
  %129 = load i32, ptr %7, align 4, !tbaa !13
  %130 = xor i32 %129, %128
  store i32 %130, ptr %7, align 4, !tbaa !13
  %131 = load i32, ptr %7, align 4, !tbaa !13
  call void @llvm.lifetime.end.p0(i64 4, ptr %7) #8
  call void @llvm.lifetime.end.p0(i64 8, ptr %6) #8
  call void @llvm.lifetime.end.p0(i64 8, ptr %5) #8
  ret i32 %131
}

; Function Attrs: mustprogress uwtable
define noundef i32 @_ZN11duckdb_zstd12XXH32_digestEPKNS_13XXH32_state_sE(ptr noundef %0) #2 {
  %2 = alloca i32, align 4
  %3 = alloca ptr, align 8
  %4 = alloca i32, align 4
  %5 = alloca i32, align 4
  store ptr %0, ptr %3, align 8, !tbaa !3
  call void @llvm.lifetime.start.p0(i64 4, ptr %4) #8
  %6 = load i8, ptr @_ZN11duckdb_zstdL5g_oneE, align 4, !tbaa !15
  %7 = sext i8 %6 to i32
  store i32 %7, ptr %4, align 4, !tbaa !16
  %8 = load i32, ptr %4, align 4, !tbaa !16
  %9 = icmp eq i32 %8, 1
  br i1 %9, label %10, label %13

10:                                               ; preds = %1
  %11 = load ptr, ptr %3, align 8, !tbaa !3
  %12 = call noundef i32 @_ZN11duckdb_zstdL19XXH32_digest_endianEPKNS_13XXH32_state_sENS_13XXH_endianessE(ptr noundef %11, i32 noundef 1)
  store i32 %12, ptr %2, align 4
  store i32 1, ptr %5, align 4
  br label %16

13:                                               ; preds = %1
  %14 = load ptr, ptr %3, align 8, !tbaa !3
  %15 = call noundef i32 @_ZN11duckdb_zstdL19XXH32_digest_endianEPKNS_13XXH32_state_sENS_13XXH_endianessE(ptr noundef %14, i32 noundef 0)
  store i32 %15, ptr %2, align 4
  store i32 1, ptr %5, align 4
  br label %16

16:                                               ; preds = %13, %10
  call void @llvm.lifetime.end.p0(i64 4, ptr %4) #8
  %17 = load i32, ptr %2, align 4
  ret i32 %17
}