; Function Attrs: mustprogress nofree norecurse nosync nounwind willreturn memory(argmem: read) uwtable
define noundef i32 @_ZN11duckdb_zstd12XXH32_digestEPKNS_13XXH32_state_sE(ptr noundef readonly captures(address) %0) local_unnamed_addr #3 {
  %.ptr = getelementptr inbounds nuw i8, ptr %0, i64 24
  %2 = getelementptr inbounds nuw i8, ptr %0, i64 40
  %3 = load i32, ptr %2, align 4, !tbaa !17
  %4 = zext i32 %3 to i64
  %5 = getelementptr inbounds nuw i8, ptr %0, i64 %4
  %.ptr11 = getelementptr inbounds nuw i8, ptr %5, i64 24
  %6 = getelementptr inbounds nuw i8, ptr %0, i64 4
  %7 = load i32, ptr %6, align 4, !tbaa !16
  %.not.i = icmp eq i32 %7, 0
  br i1 %.not.i, label %24, label %8

8:                                                ; preds = %1
  %9 = getelementptr inbounds nuw i8, ptr %0, i64 8
  %10 = load i32, ptr %9, align 4, !tbaa !18
  %11 = tail call i32 @llvm.fshl.i32(i32 %10, i32 %10, i32 1)
  %12 = getelementptr inbounds nuw i8, ptr %0, i64 12
  %13 = load i32, ptr %12, align 4, !tbaa !19
  %14 = tail call i32 @llvm.fshl.i32(i32 %13, i32 %13, i32 7)
  %15 = add i32 %14, %11
  %16 = getelementptr inbounds nuw i8, ptr %0, i64 16
  %17 = load i32, ptr %16, align 4, !tbaa !20
  %18 = tail call i32 @llvm.fshl.i32(i32 %17, i32 %17, i32 12)
  %19 = add i32 %15, %18
  %20 = getelementptr inbounds nuw i8, ptr %0, i64 20
  %21 = load i32, ptr %20, align 4, !tbaa !21
  %22 = tail call i32 @llvm.fshl.i32(i32 %21, i32 %21, i32 18)
  %23 = add i32 %19, %22
  br label %28

24:                                               ; preds = %1
  %25 = getelementptr inbounds nuw i8, ptr %0, i64 16
  %26 = load i32, ptr %25, align 4, !tbaa !20
  %27 = add i32 %26, 374761393
  br label %28

28:                                               ; preds = %24, %8
  %.0.i = phi i32 [ %23, %8 ], [ %27, %24 ]
  %29 = load i32, ptr %0, align 4, !tbaa !13
  %30 = add i32 %29, %.0.i
  %.not41.i3 = icmp ult i32 %3, 4
  br i1 %.not41.i3, label %.preheader, label %.lr.ph.preheader

.lr.ph.preheader:                                 ; preds = %28
  %31 = getelementptr inbounds nuw i8, ptr %0, i64 28
  br label %.lr.ph

.preheader:                                       ; preds = %.lr.ph, %28
  %.038.i.lcssa = phi ptr [ %.ptr, %28 ], [ %33, %.lr.ph ]
  %.1.i.lcssa = phi i32 [ %30, %28 ], [ %37, %.lr.ph ]
  %32 = icmp ult ptr %.038.i.lcssa, %.ptr11
  br i1 %32, label %.lr.ph9, label %_ZN11duckdb_zstdL19XXH32_digest_endianEPKNS_13XXH32_state_sENS_13XXH_endianessE.exit

.lr.ph:                                           ; preds = %.lr.ph.preheader, %.lr.ph
  %33 = phi ptr [ %38, %.lr.ph ], [ %31, %.lr.ph.preheader ]
  %.1.i5 = phi i32 [ %37, %.lr.ph ], [ %30, %.lr.ph.preheader ]
  %.038.i4 = phi ptr [ %33, %.lr.ph ], [ %.ptr, %.lr.ph.preheader ]
  %.038.i.val = load i32, ptr %.038.i4, align 1
  %34 = mul i32 %.038.i.val, -1028477379
  %35 = add i32 %34, %.1.i5
  %36 = tail call i32 @llvm.fshl.i32(i32 %35, i32 %35, i32 17)
  %37 = mul i32 %36, 668265263
  %38 = getelementptr inbounds nuw i8, ptr %33, i64 4
  %.not41.i = icmp ugt ptr %38, %.ptr11
  br i1 %.not41.i, label %.preheader, label %.lr.ph, !llvm.loop !23

.lr.ph9:                                          ; preds = %.preheader, %.lr.ph9
  %.2.i8 = phi i32 [ %44, %.lr.ph9 ], [ %.1.i.lcssa, %.preheader ]
  %.139.i7 = phi ptr [ %45, %.lr.ph9 ], [ %.038.i.lcssa, %.preheader ]
  %39 = load i8, ptr %.139.i7, align 1, !tbaa !6
  %40 = zext i8 %39 to i32
  %41 = mul i32 %40, 374761393
  %42 = add i32 %41, %.2.i8
  %43 = tail call i32 @llvm.fshl.i32(i32 %42, i32 %42, i32 11)
  %44 = mul i32 %43, -1640531535
  %45 = getelementptr inbounds nuw i8, ptr %.139.i7, i64 1
  %46 = icmp ult ptr %45, %.ptr11
  br i1 %46, label %.lr.ph9, label %_ZN11duckdb_zstdL19XXH32_digest_endianEPKNS_13XXH32_state_sENS_13XXH_endianessE.exit, !llvm.loop !24

_ZN11duckdb_zstdL19XXH32_digest_endianEPKNS_13XXH32_state_sENS_13XXH_endianessE.exit: ; preds = %.lr.ph9, %.preheader
  %.2.i.lcssa = phi i32 [ %.1.i.lcssa, %.preheader ], [ %44, %.lr.ph9 ]
  %47 = lshr i32 %.2.i.lcssa, 15
  %48 = xor i32 %47, %.2.i.lcssa
  %49 = mul i32 %48, -2048144777
  %50 = lshr i32 %49, 13
  %51 = xor i32 %50, %49
  %52 = mul i32 %51, -1028477379
  %53 = lshr i32 %52, 16
  %54 = xor i32 %53, %52
  ret i32 %54
}